(S'chanson'
p1
S'dialecte'
p2
tp3
.I569
.(dp1
I0
(dp2
S'chanson'
p3
I0
sS'__id__'
p4
I0
sS'dialecte'
p5
I0
ssI1
(dp6
g3
I1
sg4
I1
sg5
I1
ssI2
(dp7
g3
I2
sg4
I2
sg5
I1
ssI3
(dp8
g3
I3
sg4
I3
sg5
I1
ssI4
(dp9
g3
I4
sg4
I4
sg5
I1
ssI5
(dp10
g3
I5
sg4
I5
sg5
I1
ssI6
(dp11
g3
I6
sg4
I6
sg5
I1
ssI7
(dp12
g3
I7
sg4
I7
sg5
I1
ssI8
(dp13
g3
I8
sg4
I8
sg5
I1
ssI9
(dp14
g3
I9
sg4
I9
sg5
I1
ssI10
(dp15
g3
I10
sg4
I10
sg5
I0
ssI11
(dp16
g3
I11
sg4
I11
sg5
I1
ssI12
(dp17
g3
I12
sg4
I12
sg5
I1
ssI13
(dp18
g3
I13
sg4
I13
sg5
I1
ssI14
(dp19
g3
I14
sg4
I14
sg5
I1
ssI15
(dp20
g3
I15
sg4
I15
sg5
I1
ssI16
(dp21
g3
I16
sg4
I16
sg5
I1
ssI17
(dp22
g3
I17
sg4
I17
sg5
I1
ssI18
(dp23
g3
I18
sg4
I18
sg5
I1
ssI19
(dp24
g3
I19
sg4
I19
sg5
I1
ssI20
(dp25
g3
I20
sg4
I20
sg5
I1
ssI21
(dp26
g3
I21
sg4
I21
sg5
I1
ssI22
(dp27
g3
I22
sg4
I22
sg5
I1
ssI23
(dp28
g3
I23
sg4
I23
sg5
I1
ssI24
(dp29
g3
I24
sg4
I24
sg5
I1
ssI25
(dp30
g3
I25
sg4
I25
sg5
I1
ssI26
(dp31
g3
I26
sg4
I26
sg5
I1
ssI27
(dp32
g3
I27
sg4
I27
sg5
I1
ssI28
(dp33
g3
I28
sg4
I28
sg5
I1
ssI29
(dp34
g3
I29
sg4
I29
sg5
I1
ssI30
(dp35
g3
I30
sg4
I30
sg5
I1
ssI31
(dp36
g3
I31
sg4
I31
sg5
I1
ssI32
(dp37
g3
I32
sg4
I32
sg5
I1
ssI33
(dp38
g3
I33
sg4
I33
sg5
I1
ssI34
(dp39
g3
I34
sg4
I34
sg5
I1
ssI35
(dp40
g3
I35
sg4
I35
sg5
I1
ssI36
(dp41
g3
I36
sg4
I36
sg5
I1
ssI37
(dp42
g3
I37
sg4
I37
sg5
I1
ssI38
(dp43
g3
I38
sg4
I38
sg5
I1
ssI39
(dp44
g3
I39
sg4
I39
sg5
I1
ssI40
(dp45
g3
I40
sg4
I40
sg5
I1
ssI41
(dp46
g3
I41
sg4
I41
sg5
I1
ssI42
(dp47
g3
I42
sg4
I42
sg5
I1
ssI43
(dp48
g3
I43
sg4
I43
sg5
I1
ssI44
(dp49
g3
I44
sg4
I44
sg5
I0
ssI45
(dp50
g3
I45
sg4
I45
sg5
I0
ssI46
(dp51
g3
I46
sg4
I46
sg5
I1
ssI47
(dp52
g3
I47
sg4
I47
sg5
I1
ssI48
(dp53
g3
I48
sg4
I48
sg5
I1
ssI49
(dp54
g3
I49
sg4
I49
sg5
I1
ssI50
(dp55
g3
I50
sg4
I50
sg5
I1
ssI51
(dp56
g3
I51
sg4
I51
sg5
I1
ssI52
(dp57
g3
I52
sg4
I52
sg5
I1
ssI53
(dp58
g3
I53
sg4
I53
sg5
I1
ssI54
(dp59
g3
I54
sg4
I54
sg5
I1
ssI55
(dp60
g3
I55
sg4
I55
sg5
I1
ssI56
(dp61
g3
I56
sg4
I56
sg5
I1
ssI57
(dp62
g3
I57
sg4
I57
sg5
I1
ssI58
(dp63
g3
I57
sg4
I58
sg5
I0
ssI59
(dp64
g3
I58
sg4
I59
sg5
I1
ssI60
(dp65
g3
I59
sg4
I60
sg5
I1
ssI61
(dp66
g3
I60
sg4
I61
sg5
I1
ssI62
(dp67
g3
I61
sg4
I62
sg5
I1
ssI63
(dp68
g3
I62
sg4
I63
sg5
I1
ssI64
(dp69
g3
I63
sg4
I64
sg5
I1
ssI65
(dp70
g3
I64
sg4
I65
sg5
I1
ssI66
(dp71
g3
I65
sg4
I66
sg5
I1
ssI67
(dp72
g3
I66
sg4
I67
sg5
I1
ssI68
(dp73
g3
I67
sg4
I68
sg5
I1
ssI69
(dp74
g3
I68
sg4
I69
sg5
I1
ssI70
(dp75
g3
I69
sg4
I70
sg5
I1
ssI71
(dp76
g3
I70
sg4
I71
sg5
I1
ssI72
(dp77
g3
I71
sg4
I72
sg5
I1
ssI73
(dp78
g3
I72
sg4
I73
sg5
I1
ssI74
(dp79
g3
I73
sg4
I74
sg5
I1
ssI75
(dp80
g3
I74
sg4
I75
sg5
I1
ssI76
(dp81
g3
I75
sg4
I76
sg5
I1
ssI77
(dp82
g3
I76
sg4
I77
sg5
I1
ssI78
(dp83
g3
I77
sg4
I78
sg5
I1
ssI79
(dp84
g3
I78
sg4
I79
sg5
I1
ssI80
(dp85
g3
I79
sg4
I80
sg5
I1
ssI81
(dp86
g3
I80
sg4
I81
sg5
I1
ssI82
(dp87
g3
I81
sg4
I82
sg5
I1
ssI83
(dp88
g3
I82
sg4
I83
sg5
I1
ssI84
(dp89
g3
I83
sg4
I84
sg5
I1
ssI85
(dp90
g3
I84
sg4
I85
sg5
I1
ssI86
(dp91
g3
I85
sg4
I86
sg5
I1
ssI87
(dp92
g3
I86
sg4
I87
sg5
I1
ssI88
(dp93
g3
I87
sg4
I88
sg5
I1
ssI89
(dp94
g3
I88
sg4
I89
sg5
I0
ssI90
(dp95
g3
I89
sg4
I90
sg5
I1
ssI91
(dp96
g3
I90
sg4
I91
sg5
I1
ssI92
(dp97
g3
I91
sg4
I92
sg5
I1
ssI93
(dp98
g3
I92
sg4
I93
sg5
I1
ssI94
(dp99
g3
I93
sg4
I94
sg5
I1
ssI95
(dp100
g3
I94
sg4
I95
sg5
I1
ssI96
(dp101
g3
I95
sg4
I96
sg5
I1
ssI97
(dp102
g3
I96
sg4
I97
sg5
I1
ssI98
(dp103
g3
I97
sg4
I98
sg5
I1
ssI99
(dp104
g3
I98
sg4
I99
sg5
I1
ssI100
(dp105
g3
I99
sg4
I100
sg5
I1
ssI101
(dp106
g3
I100
sg4
I101
sg5
I1
ssI102
(dp107
g3
I101
sg4
I102
sg5
I1
ssI103
(dp108
g3
I102
sg4
I103
sg5
I1
ssI104
(dp109
g3
I103
sg4
I104
sg5
I1
ssI105
(dp110
g3
I104
sg4
I105
sg5
I1
ssI106
(dp111
g3
I105
sg4
I106
sg5
I1
ssI107
(dp112
g3
I106
sg4
I107
sg5
I1
ssI108
(dp113
g3
I107
sg4
I108
sg5
I1
ssI109
(dp114
g3
I108
sg4
I109
sg5
I1
ssI110
(dp115
g3
I109
sg4
I110
sg5
I1
ssI111
(dp116
g3
I110
sg4
I111
sg5
I1
ssI112
(dp117
g3
I111
sg4
I112
sg5
I1
ssI113
(dp118
g3
I112
sg4
I113
sg5
I1
ssI114
(dp119
g3
I113
sg4
I114
sg5
I1
ssI115
(dp120
g3
I114
sg4
I115
sg5
I1
ssI116
(dp121
g3
I115
sg4
I116
sg5
I1
ssI117
(dp122
g3
I116
sg4
I117
sg5
I1
ssI118
(dp123
g3
I117
sg4
I118
sg5
I1
ssI119
(dp124
g3
I118
sg4
I119
sg5
I1
ssI120
(dp125
g3
I119
sg4
I120
sg5
I1
ssI121
(dp126
g3
I120
sg4
I121
sg5
I1
ssI122
(dp127
g3
I121
sg4
I122
sg5
I1
ssI123
(dp128
g3
I122
sg4
I123
sg5
I1
ssI124
(dp129
g3
I123
sg4
I124
sg5
I1
ssI125
(dp130
g3
I124
sg4
I125
sg5
I1
ssI126
(dp131
g3
I125
sg4
I126
sg5
I1
ssI127
(dp132
g3
I126
sg4
I127
sg5
I1
ssI128
(dp133
g3
I127
sg4
I128
sg5
I1
ssI129
(dp134
g3
I128
sg4
I129
sg5
I1
ssI130
(dp135
g3
I129
sg4
I130
sg5
I1
ssI131
(dp136
g3
I130
sg4
I131
sg5
I1
ssI132
(dp137
g3
I131
sg4
I132
sg5
I1
ssI133
(dp138
g3
I132
sg4
I133
sg5
I1
ssI134
(dp139
g3
I133
sg4
I134
sg5
I1
ssI135
(dp140
g3
I134
sg4
I135
sg5
I1
ssI136
(dp141
g3
I135
sg4
I136
sg5
I1
ssI137
(dp142
g3
I136
sg4
I137
sg5
I1
ssI138
(dp143
g3
I137
sg4
I138
sg5
I1
ssI139
(dp144
g3
I138
sg4
I139
sg5
I1
ssI140
(dp145
g3
I139
sg4
I140
sg5
I1
ssI141
(dp146
g3
I140
sg4
I141
sg5
I1
ssI142
(dp147
g3
I141
sg4
I142
sg5
I1
ssI143
(dp148
g3
I142
sg4
I143
sg5
I0
ssI144
(dp149
g3
I143
sg4
I144
sg5
I1
ssI145
(dp150
g3
I144
sg4
I145
sg5
I0
ssI146
(dp151
g3
I145
sg4
I146
sg5
I1
ssI147
(dp152
g3
I146
sg4
I147
sg5
I1
ssI148
(dp153
g3
I147
sg4
I148
sg5
I1
ssI149
(dp154
g3
I148
sg4
I149
sg5
I0
ssI150
(dp155
g3
I149
sg4
I150
sg5
I1
ssI151
(dp156
g3
I150
sg4
I151
sg5
I1
ssI152
(dp157
g3
I151
sg4
I152
sg5
I1
ssI153
(dp158
g3
I152
sg4
I153
sg5
I1
ssI154
(dp159
g3
I153
sg4
I154
sg5
I1
ssI155
(dp160
g3
I154
sg4
I155
sg5
I1
ssI156
(dp161
g3
I155
sg4
I156
sg5
I1
ssI157
(dp162
g3
I156
sg4
I157
sg5
I1
ssI158
(dp163
g3
I157
sg4
I158
sg5
I1
ssI159
(dp164
g3
I158
sg4
I159
sg5
I1
ssI160
(dp165
g3
I159
sg4
I160
sg5
I0
ssI161
(dp166
g3
I160
sg4
I161
sg5
I1
ssI162
(dp167
g3
I161
sg4
I162
sg5
I1
ssI163
(dp168
g3
I162
sg4
I163
sg5
I1
ssI164
(dp169
g3
I163
sg4
I164
sg5
I0
ssI165
(dp170
g3
I164
sg4
I165
sg5
I1
ssI166
(dp171
g3
I165
sg4
I166
sg5
I0
ssI167
(dp172
g3
I166
sg4
I167
sg5
I0
ssI168
(dp173
g3
I167
sg4
I168
sg5
I0
ssI169
(dp174
g3
I168
sg4
I169
sg5
I1
ssI170
(dp175
g3
I169
sg4
I170
sg5
I0
ssI171
(dp176
g3
I170
sg4
I171
sg5
I0
ssI172
(dp177
g3
I171
sg4
I172
sg5
I1
ssI173
(dp178
g3
I172
sg4
I173
sg5
I1
ssI174
(dp179
g3
I173
sg4
I174
sg5
I1
ssI175
(dp180
g3
I174
sg4
I175
sg5
I1
ssI176
(dp181
g3
I175
sg4
I176
sg5
I1
ssI177
(dp182
g3
I176
sg4
I177
sg5
I1
ssI178
(dp183
g3
I177
sg4
I178
sg5
I1
ssI179
(dp184
g3
I178
sg4
I179
sg5
I1
ssI180
(dp185
g3
I179
sg4
I180
sg5
I1
ssI181
(dp186
g3
I180
sg4
I181
sg5
I1
ssI182
(dp187
g3
I181
sg4
I182
sg5
I0
ssI183
(dp188
g3
I182
sg4
I183
sg5
I0
ssI184
(dp189
g3
I183
sg4
I184
sg5
I1
ssI185
(dp190
g3
I184
sg4
I185
sg5
I1
ssI186
(dp191
g3
I185
sg4
I186
sg5
I1
ssI187
(dp192
g3
I186
sg4
I187
sg5
I1
ssI188
(dp193
g3
I187
sg4
I188
sg5
I1
ssI189
(dp194
g3
I188
sg4
I189
sg5
I1
ssI190
(dp195
g3
I189
sg4
I190
sg5
I1
ssI191
(dp196
g3
I190
sg4
I191
sg5
I1
ssI192
(dp197
g3
I191
sg4
I192
sg5
I1
ssI193
(dp198
g3
I192
sg4
I193
sg5
I1
ssI194
(dp199
g3
I193
sg4
I194
sg5
I1
ssI195
(dp200
g3
I194
sg4
I195
sg5
I1
ssI196
(dp201
g3
I195
sg4
I196
sg5
I1
ssI197
(dp202
g3
I196
sg4
I197
sg5
I1
ssI198
(dp203
g3
I197
sg4
I198
sg5
I1
ssI199
(dp204
g3
I198
sg4
I199
sg5
I1
ssI200
(dp205
g3
I199
sg4
I200
sg5
I1
ssI201
(dp206
g3
I200
sg4
I201
sg5
I1
ssI202
(dp207
g3
I201
sg4
I202
sg5
I1
ssI203
(dp208
g3
I202
sg4
I203
sg5
I1
ssI204
(dp209
g3
I203
sg4
I204
sg5
I1
ssI205
(dp210
g3
I204
sg4
I205
sg5
I1
ssI206
(dp211
g3
I205
sg4
I206
sg5
I1
ssI207
(dp212
g3
I206
sg4
I207
sg5
I1
ssI208
(dp213
g3
I207
sg4
I208
sg5
I1
ssI209
(dp214
g3
I208
sg4
I209
sg5
I1
ssI210
(dp215
g3
I209
sg4
I210
sg5
I1
ssI211
(dp216
g3
I210
sg4
I211
sg5
I1
ssI212
(dp217
g3
I211
sg4
I212
sg5
I0
ssI213
(dp218
g3
I212
sg4
I213
sg5
I1
ssI214
(dp219
g3
I213
sg4
I214
sg5
I1
ssI215
(dp220
g3
I214
sg4
I215
sg5
I1
ssI216
(dp221
g3
I215
sg4
I216
sg5
I1
ssI217
(dp222
g3
I216
sg4
I217
sg5
I1
ssI218
(dp223
g3
I217
sg4
I218
sg5
I1
ssI219
(dp224
g3
I218
sg4
I219
sg5
I1
ssI220
(dp225
g3
I219
sg4
I220
sg5
I1
ssI221
(dp226
g3
I220
sg4
I221
sg5
I1
ssI222
(dp227
g3
I221
sg4
I222
sg5
I1
ssI223
(dp228
g3
I222
sg4
I223
sg5
I1
ssI224
(dp229
g3
I223
sg4
I224
sg5
I1
ssI225
(dp230
g3
I224
sg4
I225
sg5
I0
ssI226
(dp231
g3
I225
sg4
I226
sg5
I1
ssI227
(dp232
g3
I226
sg4
I227
sg5
I1
ssI228
(dp233
g3
I227
sg4
I228
sg5
I1
ssI229
(dp234
g3
I228
sg4
I229
sg5
I1
ssI230
(dp235
g3
I229
sg4
I230
sg5
I1
ssI231
(dp236
g3
I230
sg4
I231
sg5
I1
ssI232
(dp237
g3
I231
sg4
I232
sg5
I1
ssI233
(dp238
g3
I232
sg4
I233
sg5
I1
ssI234
(dp239
g3
I233
sg4
I234
sg5
I1
ssI235
(dp240
g3
I234
sg4
I235
sg5
I1
ssI236
(dp241
g3
I235
sg4
I236
sg5
I1
ssI237
(dp242
g3
I236
sg4
I237
sg5
I1
ssI238
(dp243
g3
I237
sg4
I238
sg5
I1
ssI239
(dp244
g3
I238
sg4
I239
sg5
I1
ssI240
(dp245
g3
I239
sg4
I240
sg5
I1
ssI241
(dp246
g3
I240
sg4
I241
sg5
I1
ssI242
(dp247
g3
I241
sg4
I242
sg5
I1
ssI243
(dp248
g3
I242
sg4
I243
sg5
I1
ssI244
(dp249
g3
I243
sg4
I244
sg5
I1
ssI245
(dp250
g3
I244
sg4
I245
sg5
I1
ssI246
(dp251
g3
I245
sg4
I246
sg5
I1
ssI247
(dp252
g3
I246
sg4
I247
sg5
I1
ssI248
(dp253
g3
I247
sg4
I248
sg5
I1
ssI249
(dp254
g3
I248
sg4
I249
sg5
I1
ssI250
(dp255
g3
I249
sg4
I250
sg5
I1
ssI251
(dp256
g3
I250
sg4
I251
sg5
I1
ssI252
(dp257
g3
I251
sg4
I252
sg5
I1
ssI253
(dp258
g3
I252
sg4
I253
sg5
I1
ssI254
(dp259
g3
I253
sg4
I254
sg5
I1
ssI255
(dp260
g3
I254
sg4
I255
sg5
I1
ssI256
(dp261
g3
I255
sg4
I256
sg5
I1
ssI257
(dp262
g3
I256
sg4
I257
sg5
I1
ssI258
(dp263
g3
I257
sg4
I258
sg5
I1
ssI259
(dp264
g3
I258
sg4
I259
sg5
I1
ssI260
(dp265
g3
I259
sg4
I260
sg5
I1
ssI261
(dp266
g3
I260
sg4
I261
sg5
I1
ssI262
(dp267
g3
I261
sg4
I262
sg5
I1
ssI263
(dp268
g3
I262
sg4
I263
sg5
I1
ssI264
(dp269
g3
I263
sg4
I264
sg5
I1
ssI265
(dp270
g3
I264
sg4
I265
sg5
I1
ssI266
(dp271
g3
I265
sg4
I266
sg5
I1
ssI267
(dp272
g3
I266
sg4
I267
sg5
I0
ssI268
(dp273
g3
I267
sg4
I268
sg5
I1
ssI269
(dp274
g3
I268
sg4
I269
sg5
I1
ssI270
(dp275
g3
I269
sg4
I270
sg5
I1
ssI271
(dp276
g3
I270
sg4
I271
sg5
I1
ssI272
(dp277
g3
I271
sg4
I272
sg5
I1
ssI273
(dp278
g3
I272
sg4
I273
sg5
I0
ssI274
(dp279
g3
I273
sg4
I274
sg5
I1
ssI275
(dp280
g3
I274
sg4
I275
sg5
I1
ssI276
(dp281
g3
I275
sg4
I276
sg5
I1
ssI277
(dp282
g3
I276
sg4
I277
sg5
I1
ssI278
(dp283
g3
I277
sg4
I278
sg5
I1
ssI279
(dp284
g3
I278
sg4
I279
sg5
I1
ssI280
(dp285
g3
I279
sg4
I280
sg5
I1
ssI281
(dp286
g3
I280
sg4
I281
sg5
I1
ssI282
(dp287
g3
I281
sg4
I282
sg5
I1
ssI283
(dp288
g3
I282
sg4
I283
sg5
I1
ssI284
(dp289
g3
I283
sg4
I284
sg5
I1
ssI285
(dp290
g3
I284
sg4
I285
sg5
I1
ssI286
(dp291
g3
I285
sg4
I286
sg5
I1
ssI287
(dp292
g3
I286
sg4
I287
sg5
I1
ssI288
(dp293
g3
I287
sg4
I288
sg5
I1
ssI289
(dp294
g3
I288
sg4
I289
sg5
I1
ssI290
(dp295
g3
I289
sg4
I290
sg5
I1
ssI291
(dp296
g3
I290
sg4
I291
sg5
I1
ssI292
(dp297
g3
I291
sg4
I292
sg5
I1
ssI293
(dp298
g3
I292
sg4
I293
sg5
I1
ssI294
(dp299
g3
I293
sg4
I294
sg5
I1
ssI295
(dp300
g3
I294
sg4
I295
sg5
I1
ssI296
(dp301
g3
I295
sg4
I296
sg5
I1
ssI297
(dp302
g3
I296
sg4
I297
sg5
I1
ssI298
(dp303
g3
I297
sg4
I298
sg5
I1
ssI299
(dp304
g3
I298
sg4
I299
sg5
I1
ssI300
(dp305
g3
I299
sg4
I300
sg5
I1
ssI301
(dp306
g3
I300
sg4
I301
sg5
I1
ssI302
(dp307
g3
I301
sg4
I302
sg5
I1
ssI303
(dp308
g3
I302
sg4
I303
sg5
I1
ssI304
(dp309
g3
I303
sg4
I304
sg5
I1
ssI305
(dp310
g3
I304
sg4
I305
sg5
I1
ssI306
(dp311
g3
I305
sg4
I306
sg5
I1
ssI307
(dp312
g3
I306
sg4
I307
sg5
I1
ssI308
(dp313
g3
I307
sg4
I308
sg5
I1
ssI309
(dp314
g3
I308
sg4
I309
sg5
I1
ssI310
(dp315
g3
I309
sg4
I310
sg5
I1
ssI311
(dp316
g3
I310
sg4
I311
sg5
I1
ssI312
(dp317
g3
I311
sg4
I312
sg5
I1
ssI313
(dp318
g3
I312
sg4
I313
sg5
I1
ssI314
(dp319
g3
I313
sg4
I314
sg5
I1
ssI315
(dp320
g3
I314
sg4
I315
sg5
I1
ssI316
(dp321
g3
I315
sg4
I316
sg5
I1
ssI317
(dp322
g3
I316
sg4
I317
sg5
I1
ssI318
(dp323
g3
I317
sg4
I318
sg5
I1
ssI319
(dp324
g3
I318
sg4
I319
sg5
I1
ssI320
(dp325
g3
I319
sg4
I320
sg5
I1
ssI321
(dp326
g3
I320
sg4
I321
sg5
I1
ssI322
(dp327
g3
I321
sg4
I322
sg5
I1
ssI323
(dp328
g3
I322
sg4
I323
sg5
I1
ssI324
(dp329
g3
I323
sg4
I324
sg5
I1
ssI325
(dp330
g3
I324
sg4
I325
sg5
I1
ssI326
(dp331
g3
I325
sg4
I326
sg5
I1
ssI327
(dp332
g3
I326
sg4
I327
sg5
I1
ssI328
(dp333
g3
I327
sg4
I328
sg5
I1
ssI329
(dp334
g3
I328
sg4
I329
sg5
I1
ssI330
(dp335
g3
I329
sg4
I330
sg5
I1
ssI331
(dp336
g3
I330
sg4
I331
sg5
I1
ssI332
(dp337
g3
I331
sg4
I332
sg5
I1
ssI333
(dp338
g3
I332
sg4
I333
sg5
I1
ssI334
(dp339
g3
I333
sg4
I334
sg5
I1
ssI335
(dp340
g3
I334
sg4
I335
sg5
I1
ssI336
(dp341
g3
I335
sg4
I336
sg5
I1
ssI337
(dp342
g3
I336
sg4
I337
sg5
I1
ssI338
(dp343
g3
I337
sg4
I338
sg5
I1
ssI339
(dp344
g3
I338
sg4
I339
sg5
I1
ssI340
(dp345
g3
I339
sg4
I340
sg5
I1
ssI341
(dp346
g3
I340
sg4
I341
sg5
I1
ssI342
(dp347
g3
I341
sg4
I342
sg5
I1
ssI343
(dp348
g3
I342
sg4
I343
sg5
I1
ssI344
(dp349
g3
I343
sg4
I344
sg5
I1
ssI345
(dp350
g3
I344
sg4
I345
sg5
I1
ssI346
(dp351
g3
I345
sg4
I346
sg5
I1
ssI347
(dp352
g3
I346
sg4
I347
sg5
I1
ssI348
(dp353
g3
I347
sg4
I348
sg5
I1
ssI349
(dp354
g3
I348
sg4
I349
sg5
I1
ssI350
(dp355
g3
I349
sg4
I350
sg5
I1
ssI351
(dp356
g3
I350
sg4
I351
sg5
I1
ssI352
(dp357
g3
I351
sg4
I352
sg5
I1
ssI353
(dp358
g3
I352
sg4
I353
sg5
I1
ssI354
(dp359
g3
I353
sg4
I354
sg5
I1
ssI355
(dp360
g3
I354
sg4
I355
sg5
I1
ssI356
(dp361
g3
I355
sg4
I356
sg5
I1
ssI357
(dp362
g3
I356
sg4
I357
sg5
I1
ssI358
(dp363
g3
I357
sg4
I358
sg5
I1
ssI359
(dp364
g3
I358
sg4
I359
sg5
I1
ssI360
(dp365
g3
I359
sg4
I360
sg5
I1
ssI361
(dp366
g3
I360
sg4
I361
sg5
I1
ssI362
(dp367
g3
I361
sg4
I362
sg5
I1
ssI363
(dp368
g3
I362
sg4
I363
sg5
I1
ssI364
(dp369
g3
I363
sg4
I364
sg5
I1
ssI365
(dp370
g3
I364
sg4
I365
sg5
I1
ssI366
(dp371
g3
I365
sg4
I366
sg5
I1
ssI367
(dp372
g3
I366
sg4
I367
sg5
I1
ssI368
(dp373
g3
I367
sg4
I368
sg5
I1
ssI369
(dp374
g3
I368
sg4
I369
sg5
I1
ssI370
(dp375
g3
I369
sg4
I370
sg5
I1
ssI371
(dp376
g3
I370
sg4
I371
sg5
I1
ssI372
(dp377
g3
I371
sg4
I372
sg5
I1
ssI373
(dp378
g3
I372
sg4
I373
sg5
I1
ssI374
(dp379
g3
I373
sg4
I374
sg5
I1
ssI375
(dp380
g3
I374
sg4
I375
sg5
I1
ssI376
(dp381
g3
I375
sg4
I376
sg5
I1
ssI377
(dp382
g3
I376
sg4
I377
sg5
I1
ssI378
(dp383
g3
I377
sg4
I378
sg5
I1
ssI379
(dp384
g3
I378
sg4
I379
sg5
I1
ssI380
(dp385
g3
I379
sg4
I380
sg5
I1
ssI381
(dp386
g3
I380
sg4
I381
sg5
I1
ssI382
(dp387
g3
I381
sg4
I382
sg5
I1
ssI383
(dp388
g3
I382
sg4
I383
sg5
I1
ssI384
(dp389
g3
I383
sg4
I384
sg5
I1
ssI385
(dp390
g3
I384
sg4
I385
sg5
I1
ssI386
(dp391
g3
I385
sg4
I386
sg5
I1
ssI387
(dp392
g3
I386
sg4
I387
sg5
I1
ssI388
(dp393
g3
I387
sg4
I388
sg5
I1
ssI389
(dp394
g3
I388
sg4
I389
sg5
I1
ssI390
(dp395
g3
I389
sg4
I390
sg5
I1
ssI391
(dp396
g3
I390
sg4
I391
sg5
I1
ssI392
(dp397
g3
I391
sg4
I392
sg5
I1
ssI393
(dp398
g3
I392
sg4
I393
sg5
I1
ssI394
(dp399
g3
I393
sg4
I394
sg5
I1
ssI395
(dp400
g3
I394
sg4
I395
sg5
I1
ssI396
(dp401
g3
I395
sg4
I396
sg5
I0
ssI397
(dp402
g3
I396
sg4
I397
sg5
I0
ssI398
(dp403
g3
I397
sg4
I398
sg5
I0
ssI399
(dp404
g3
I398
sg4
I399
sg5
I0
ssI400
(dp405
g3
I399
sg4
I400
sg5
I0
ssI401
(dp406
g3
I400
sg4
I401
sg5
I0
ssI402
(dp407
g3
I401
sg4
I402
sg5
I1
ssI403
(dp408
g3
I402
sg4
I403
sg5
I1
ssI404
(dp409
g3
I403
sg4
I404
sg5
I0
ssI405
(dp410
g3
I404
sg4
I405
sg5
I1
ssI406
(dp411
g3
I405
sg4
I406
sg5
I1
ssI407
(dp412
g3
I406
sg4
I407
sg5
I0
ssI408
(dp413
g3
I407
sg4
I408
sg5
I1
ssI409
(dp414
g3
I408
sg4
I409
sg5
I1
ssI410
(dp415
g3
I409
sg4
I410
sg5
I0
ssI411
(dp416
g3
I410
sg4
I411
sg5
I1
ssI412
(dp417
g3
I411
sg4
I412
sg5
I1
ssI413
(dp418
g3
I412
sg4
I413
sg5
I1
ssI414
(dp419
g3
I413
sg4
I414
sg5
I1
ssI415
(dp420
g3
I414
sg4
I415
sg5
I1
ssI416
(dp421
g3
I415
sg4
I416
sg5
I1
ssI417
(dp422
g3
I416
sg4
I417
sg5
I1
ssI418
(dp423
g3
I417
sg4
I418
sg5
I1
ssI419
(dp424
g3
I418
sg4
I419
sg5
I1
ssI420
(dp425
g3
I419
sg4
I420
sg5
I1
ssI421
(dp426
g3
I420
sg4
I421
sg5
I1
ssI422
(dp427
g3
I421
sg4
I422
sg5
I1
ssI423
(dp428
g3
I422
sg4
I423
sg5
I1
ssI424
(dp429
g3
I423
sg4
I424
sg5
I1
ssI425
(dp430
g3
I424
sg4
I425
sg5
I1
ssI426
(dp431
g3
I425
sg4
I426
sg5
I1
ssI427
(dp432
g3
I426
sg4
I427
sg5
I1
ssI428
(dp433
g3
I427
sg4
I428
sg5
I1
ssI429
(dp434
g3
I428
sg4
I429
sg5
I1
ssI430
(dp435
g3
I429
sg4
I430
sg5
I1
ssI431
(dp436
g3
I430
sg4
I431
sg5
I1
ssI432
(dp437
g3
I431
sg4
I432
sg5
I0
ssI433
(dp438
g3
I432
sg4
I433
sg5
I1
ssI434
(dp439
g3
I433
sg4
I434
sg5
I1
ssI435
(dp440
g3
I434
sg4
I435
sg5
I0
ssI436
(dp441
g3
I435
sg4
I436
sg5
I1
ssI437
(dp442
g3
I436
sg4
I437
sg5
I0
ssI438
(dp443
g3
I437
sg4
I438
sg5
I0
ssI439
(dp444
g3
I438
sg4
I439
sg5
I1
ssI440
(dp445
g3
I439
sg4
I440
sg5
I1
ssI441
(dp446
g3
I440
sg4
I441
sg5
I1
ssI442
(dp447
g3
I441
sg4
I442
sg5
I1
ssI443
(dp448
g3
I442
sg4
I443
sg5
I1
ssI444
(dp449
g3
I443
sg4
I444
sg5
I1
ssI445
(dp450
g3
I444
sg4
I445
sg5
I0
ssI446
(dp451
g3
I445
sg4
I446
sg5
I1
ssI447
(dp452
g3
I446
sg4
I447
sg5
I1
ssI448
(dp453
g3
I447
sg4
I448
sg5
I1
ssI449
(dp454
g3
I448
sg4
I449
sg5
I1
ssI450
(dp455
g3
I449
sg4
I450
sg5
I1
ssI451
(dp456
g3
I450
sg4
I451
sg5
I1
ssI452
(dp457
g3
I451
sg4
I452
sg5
I1
ssI453
(dp458
g3
I452
sg4
I453
sg5
I1
ssI454
(dp459
g3
I453
sg4
I454
sg5
I1
ssI455
(dp460
g3
I454
sg4
I455
sg5
I0
ssI456
(dp461
g3
I455
sg4
I456
sg5
I1
ssI457
(dp462
g3
I456
sg4
I457
sg5
I1
ssI458
(dp463
g3
I457
sg4
I458
sg5
I1
ssI459
(dp464
g3
I458
sg4
I459
sg5
I1
ssI460
(dp465
g3
I459
sg4
I460
sg5
I0
ssI461
(dp466
g3
I460
sg4
I461
sg5
I1
ssI462
(dp467
g3
I461
sg4
I462
sg5
I0
ssI463
(dp468
g3
I462
sg4
I463
sg5
I1
ssI464
(dp469
g3
I463
sg4
I464
sg5
I1
ssI465
(dp470
g3
I464
sg4
I465
sg5
I1
ssI466
(dp471
g3
I465
sg4
I466
sg5
I1
ssI467
(dp472
g3
I466
sg4
I467
sg5
I1
ssI468
(dp473
g3
I467
sg4
I468
sg5
I1
ssI469
(dp474
g3
I468
sg4
I469
sg5
I1
ssI470
(dp475
g3
I469
sg4
I470
sg5
I1
ssI471
(dp476
g3
I470
sg4
I471
sg5
I1
ssI472
(dp477
g3
I471
sg4
I472
sg5
I1
ssI473
(dp478
g3
I472
sg4
I473
sg5
I1
ssI474
(dp479
g3
I473
sg4
I474
sg5
I1
ssI475
(dp480
g3
I474
sg4
I475
sg5
I1
ssI476
(dp481
g3
I475
sg4
I476
sg5
I1
ssI477
(dp482
g3
I476
sg4
I477
sg5
I1
ssI478
(dp483
g3
I477
sg4
I478
sg5
I1
ssI479
(dp484
g3
I478
sg4
I479
sg5
I1
ssI480
(dp485
g3
I479
sg4
I480
sg5
I1
ssI481
(dp486
g3
I480
sg4
I481
sg5
I1
ssI482
(dp487
g3
I481
sg4
I482
sg5
I1
ssI483
(dp488
g3
I482
sg4
I483
sg5
I1
ssI484
(dp489
g3
I483
sg4
I484
sg5
I1
ssI485
(dp490
g3
I484
sg4
I485
sg5
I1
ssI486
(dp491
g3
I485
sg4
I486
sg5
I1
ssI487
(dp492
g3
I486
sg4
I487
sg5
I1
ssI488
(dp493
g3
I487
sg4
I488
sg5
I1
ssI489
(dp494
g3
I488
sg4
I489
sg5
I1
ssI490
(dp495
g3
I489
sg4
I490
sg5
I1
ssI491
(dp496
g3
I490
sg4
I491
sg5
I1
ssI492
(dp497
g3
I491
sg4
I492
sg5
I1
ssI493
(dp498
g3
I492
sg4
I493
sg5
I1
ssI494
(dp499
g3
I493
sg4
I494
sg5
I1
ssI495
(dp500
g3
I494
sg4
I495
sg5
I1
ssI496
(dp501
g3
I495
sg4
I496
sg5
I1
ssI497
(dp502
g3
I496
sg4
I497
sg5
I1
ssI498
(dp503
g3
I497
sg4
I498
sg5
I1
ssI499
(dp504
g3
I498
sg4
I499
sg5
I1
ssI500
(dp505
g3
I499
sg4
I500
sg5
I1
ssI501
(dp506
g3
I500
sg4
I501
sg5
I1
ssI502
(dp507
g3
I501
sg4
I502
sg5
I1
ssI503
(dp508
g3
I502
sg4
I503
sg5
I1
ssI504
(dp509
g3
I503
sg4
I504
sg5
I1
ssI505
(dp510
g3
I504
sg4
I505
sg5
I1
ssI506
(dp511
g3
I505
sg4
I506
sg5
I1
ssI507
(dp512
g3
I506
sg4
I507
sg5
I1
ssI508
(dp513
g3
I507
sg4
I508
sg5
I1
ssI509
(dp514
g3
I508
sg4
I509
sg5
I1
ssI510
(dp515
g3
I509
sg4
I510
sg5
I1
ssI511
(dp516
g3
I510
sg4
I511
sg5
I1
ssI512
(dp517
g3
I511
sg4
I512
sg5
I1
ssI513
(dp518
g3
I512
sg4
I513
sg5
I1
ssI514
(dp519
g3
I513
sg4
I514
sg5
I1
ssI515
(dp520
g3
I514
sg4
I515
sg5
I1
ssI516
(dp521
g3
I515
sg4
I516
sg5
I1
ssI517
(dp522
g3
I516
sg4
I517
sg5
I1
ssI518
(dp523
g3
I517
sg4
I518
sg5
I1
ssI519
(dp524
g3
I518
sg4
I519
sg5
I1
ssI520
(dp525
g3
I519
sg4
I520
sg5
I1
ssI521
(dp526
g3
I520
sg4
I521
sg5
I1
ssI522
(dp527
g3
I521
sg4
I522
sg5
I1
ssI523
(dp528
g3
I522
sg4
I523
sg5
I1
ssI524
(dp529
g3
I523
sg4
I524
sg5
I1
ssI525
(dp530
g3
I524
sg4
I525
sg5
I1
ssI526
(dp531
g3
I525
sg4
I526
sg5
I1
ssI527
(dp532
g3
I526
sg4
I527
sg5
I1
ssI528
(dp533
g3
I527
sg4
I528
sg5
I1
ssI529
(dp534
g3
I528
sg4
I529
sg5
I1
ssI530
(dp535
g3
I529
sg4
I530
sg5
I0
ssI531
(dp536
g3
I530
sg4
I531
sg5
I0
ssI532
(dp537
g3
I531
sg4
I532
sg5
I0
ssI533
(dp538
g3
I532
sg4
I533
sg5
I1
ssI534
(dp539
g3
I533
sg4
I534
sg5
I0
ssI535
(dp540
g3
I534
sg4
I535
sg5
I1
ssI536
(dp541
g3
I535
sg4
I536
sg5
I1
ssI537
(dp542
g3
I536
sg4
I537
sg5
I1
ssI538
(dp543
g3
I537
sg4
I538
sg5
I1
ssI539
(dp544
g3
I538
sg4
I539
sg5
I1
ssI540
(dp545
g3
I539
sg4
I540
sg5
I1
ssI541
(dp546
g3
I540
sg4
I541
sg5
I1
ssI542
(dp547
g3
I541
sg4
I542
sg5
I1
ssI543
(dp548
g3
I542
sg4
I543
sg5
I1
ssI544
(dp549
g3
I543
sg4
I544
sg5
I1
ssI545
(dp550
g3
I544
sg4
I545
sg5
I0
ssI546
(dp551
g3
I545
sg4
I546
sg5
I0
ssI547
(dp552
g3
I546
sg4
I547
sg5
I0
ssI548
(dp553
g3
I547
sg4
I548
sg5
I1
ssI549
(dp554
g3
I548
sg4
I549
sg5
I1
ssI550
(dp555
g3
I549
sg4
I550
sg5
I1
ssI551
(dp556
g3
I550
sg4
I551
sg5
I1
ssI552
(dp557
g3
I551
sg4
I552
sg5
I1
ssI553
(dp558
g3
I552
sg4
I553
sg5
I1
ssI554
(dp559
g3
I553
sg4
I554
sg5
I1
ssI555
(dp560
g3
I554
sg4
I555
sg5
I1
ssI556
(dp561
g3
I555
sg4
I556
sg5
I1
ssI557
(dp562
g3
I556
sg4
I557
sg5
I1
ssI558
(dp563
g3
I557
sg4
I558
sg5
I1
ssI559
(dp564
g3
I558
sg4
I559
sg5
I1
ssI560
(dp565
g3
I559
sg4
I560
sg5
I1
ssI561
(dp566
g3
I560
sg4
I561
sg5
I1
ssI562
(dp567
g3
I561
sg4
I562
sg5
I1
ssI563
(dp568
g3
I562
sg4
I563
sg5
I1
ssI564
(dp569
g3
I563
sg4
I564
sg5
I1
ssI565
(dp570
g3
I564
sg4
I565
sg5
I1
ssI566
(dp571
g3
I565
sg4
I566
sg5
I1
ssI567
(dp572
g3
I566
sg4
I567
sg5
I1
ssI568
(dp573
g3
I566
sg4
I568
sg5
I0
ss.(dp1
.