(S'chanson'
p1
S'recueil'
p2
tp3
.I676
.(dp1
I0
(dp2
S'chanson'
p3
I0
sS'recueil'
p4
I0
sS'__id__'
p5
I0
ssI1
(dp6
g3
I1
sg4
I1
sg5
I1
ssI2
(dp7
g3
I2
sg4
I1
sg5
I2
ssI3
(dp8
g3
I3
sg4
I2
sg5
I3
ssI4
(dp9
g3
I4
sg4
I3
sg5
I4
ssI5
(dp10
g3
I5
sg4
I4
sg5
I5
ssI6
(dp11
g3
I6
sg4
I5
sg5
I6
ssI7
(dp12
g3
I7
sg4
I2
sg5
I7
ssI8
(dp13
g3
I8
sg4
I2
sg5
I8
ssI9
(dp14
g3
I8
sg4
I6
sg5
I9
ssI10
(dp15
g3
I8
sg4
I7
sg5
I10
ssI11
(dp16
g3
I8
sg4
I8
sg5
I11
ssI12
(dp17
g3
I9
sg4
I6
sg5
I12
ssI13
(dp18
g3
I9
sg4
I7
sg5
I13
ssI14
(dp19
g3
I10
sg4
I0
sg5
I14
ssI15
(dp20
g3
I11
sg4
I2
sg5
I15
ssI16
(dp21
g3
I12
sg4
I9
sg5
I16
ssI17
(dp22
g3
I13
sg4
I9
sg5
I17
ssI18
(dp23
g3
I14
sg4
I9
sg5
I18
ssI19
(dp24
g3
I15
sg4
I10
sg5
I19
ssI20
(dp25
g3
I16
sg4
I9
sg5
I20
ssI21
(dp26
g3
I17
sg4
I7
sg5
I21
ssI22
(dp27
g3
I18
sg4
I5
sg5
I22
ssI23
(dp28
g3
I18
sg4
I11
sg5
I23
ssI24
(dp29
g3
I19
sg4
I2
sg5
I24
ssI25
(dp30
g3
I20
sg4
I2
sg5
I25
ssI26
(dp31
g3
I21
sg4
I12
sg5
I26
ssI27
(dp32
g3
I21
sg4
I7
sg5
I27
ssI28
(dp33
g3
I22
sg4
I13
sg5
I28
ssI29
(dp34
g3
I23
sg4
I7
sg5
I29
ssI30
(dp35
g3
I24
sg4
I2
sg5
I30
ssI31
(dp36
g3
I25
sg4
I2
sg5
I31
ssI32
(dp37
g3
I26
sg4
I14
sg5
I32
ssI33
(dp38
g3
I27
sg4
I7
sg5
I33
ssI34
(dp39
g3
I28
sg4
I9
sg5
I34
ssI35
(dp40
g3
I29
sg4
I9
sg5
I35
ssI36
(dp41
g3
I30
sg4
I9
sg5
I36
ssI37
(dp42
g3
I31
sg4
I9
sg5
I37
ssI38
(dp43
g3
I32
sg4
I7
sg5
I38
ssI39
(dp44
g3
I33
sg4
I1
sg5
I39
ssI40
(dp45
g3
I34
sg4
I9
sg5
I40
ssI41
(dp46
g3
I35
sg4
I9
sg5
I41
ssI42
(dp47
g3
I36
sg4
I10
sg5
I42
ssI43
(dp48
g3
I37
sg4
I9
sg5
I43
ssI44
(dp49
g3
I38
sg4
I9
sg5
I44
ssI45
(dp50
g3
I39
sg4
I9
sg5
I45
ssI46
(dp51
g3
I40
sg4
I12
sg5
I46
ssI47
(dp52
g3
I41
sg4
I15
sg5
I47
ssI48
(dp53
g3
I42
sg4
I2
sg5
I48
ssI49
(dp54
g3
I43
sg4
I2
sg5
I49
ssI50
(dp55
g3
I44
sg4
I1
sg5
I50
ssI51
(dp56
g3
I45
sg4
I2
sg5
I51
ssI52
(dp57
g3
I46
sg4
I16
sg5
I52
ssI53
(dp58
g3
I46
sg4
I9
sg5
I53
ssI54
(dp59
g3
I47
sg4
I13
sg5
I54
ssI55
(dp60
g3
I48
sg4
I13
sg5
I55
ssI56
(dp61
g3
I49
sg4
I15
sg5
I56
ssI57
(dp62
g3
I50
sg4
I2
sg5
I57
ssI58
(dp63
g3
I51
sg4
I17
sg5
I58
ssI59
(dp64
g3
I52
sg4
I9
sg5
I59
ssI60
(dp65
g3
I53
sg4
I9
sg5
I60
ssI61
(dp66
g3
I54
sg4
I2
sg5
I61
ssI62
(dp67
g3
I55
sg4
I3
sg5
I62
ssI63
(dp68
g3
I56
sg4
I2
sg5
I63
ssI64
(dp69
g3
I57
sg4
I6
sg5
I64
ssI65
(dp70
g3
I58
sg4
I9
sg5
I65
ssI66
(dp71
g3
I59
sg4
I4
sg5
I66
ssI67
(dp72
g3
I60
sg4
I7
sg5
I67
ssI68
(dp73
g3
I60
sg4
I11
sg5
I68
ssI69
(dp74
g3
I60
sg4
I4
sg5
I69
ssI70
(dp75
g3
I61
sg4
I2
sg5
I70
ssI71
(dp76
g3
I61
sg4
I3
sg5
I71
ssI72
(dp77
g3
I62
sg4
I18
sg5
I72
ssI73
(dp78
g3
I63
sg4
I13
sg5
I73
ssI74
(dp79
g3
I64
sg4
I2
sg5
I74
ssI75
(dp80
g3
I65
sg4
I14
sg5
I75
ssI76
(dp81
g3
I66
sg4
I2
sg5
I76
ssI77
(dp82
g3
I67
sg4
I2
sg5
I77
ssI78
(dp83
g3
I68
sg4
I10
sg5
I78
ssI79
(dp84
g3
I69
sg4
I13
sg5
I79
ssI80
(dp85
g3
I70
sg4
I9
sg5
I80
ssI81
(dp86
g3
I71
sg4
I2
sg5
I81
ssI82
(dp87
g3
I72
sg4
I2
sg5
I82
ssI83
(dp88
g3
I73
sg4
I19
sg5
I83
ssI84
(dp89
g3
I74
sg4
I19
sg5
I84
ssI85
(dp90
g3
I75
sg4
I10
sg5
I85
ssI86
(dp91
g3
I76
sg4
I13
sg5
I86
ssI87
(dp92
g3
I77
sg4
I2
sg5
I87
ssI88
(dp93
g3
I78
sg4
I7
sg5
I88
ssI89
(dp94
g3
I79
sg4
I10
sg5
I89
ssI90
(dp95
g3
I80
sg4
I13
sg5
I90
ssI91
(dp96
g3
I81
sg4
I4
sg5
I91
ssI92
(dp97
g3
I82
sg4
I10
sg5
I92
ssI93
(dp98
g3
I83
sg4
I10
sg5
I93
ssI94
(dp99
g3
I84
sg4
I10
sg5
I94
ssI95
(dp100
g3
I85
sg4
I7
sg5
I95
ssI96
(dp101
g3
I86
sg4
I13
sg5
I96
ssI97
(dp102
g3
I87
sg4
I4
sg5
I97
ssI98
(dp103
g3
I88
sg4
I0
sg5
I98
ssI99
(dp104
g3
I89
sg4
I12
sg5
I99
ssI100
(dp105
g3
I89
sg4
I5
sg5
I100
ssI101
(dp106
g3
I90
sg4
I2
sg5
I101
ssI102
(dp107
g3
I91
sg4
I10
sg5
I102
ssI103
(dp108
g3
I92
sg4
I10
sg5
I103
ssI104
(dp109
g3
I93
sg4
I13
sg5
I104
ssI105
(dp110
g3
I94
sg4
I4
sg5
I105
ssI106
(dp111
g3
I95
sg4
I4
sg5
I106
ssI107
(dp112
g3
I96
sg4
I9
sg5
I107
ssI108
(dp113
g3
I97
sg4
I1
sg5
I108
ssI109
(dp114
g3
I98
sg4
I2
sg5
I109
ssI110
(dp115
g3
I99
sg4
I2
sg5
I110
ssI111
(dp116
g3
I100
sg4
I2
sg5
I111
ssI112
(dp117
g3
I101
sg4
I18
sg5
I112
ssI113
(dp118
g3
I102
sg4
I9
sg5
I113
ssI114
(dp119
g3
I103
sg4
I1
sg5
I114
ssI115
(dp120
g3
I104
sg4
I1
sg5
I115
ssI116
(dp121
g3
I105
sg4
I20
sg5
I116
ssI117
(dp122
g3
I106
sg4
I13
sg5
I117
ssI118
(dp123
g3
I107
sg4
I18
sg5
I118
ssI119
(dp124
g3
I108
sg4
I9
sg5
I119
ssI120
(dp125
g3
I109
sg4
I9
sg5
I120
ssI121
(dp126
g3
I110
sg4
I9
sg5
I121
ssI122
(dp127
g3
I111
sg4
I9
sg5
I122
ssI123
(dp128
g3
I112
sg4
I7
sg5
I123
ssI124
(dp129
g3
I113
sg4
I10
sg5
I124
ssI125
(dp130
g3
I114
sg4
I11
sg5
I125
ssI126
(dp131
g3
I114
sg4
I21
sg5
I126
ssI127
(dp132
g3
I115
sg4
I5
sg5
I127
ssI128
(dp133
g3
I116
sg4
I2
sg5
I128
ssI129
(dp134
g3
I117
sg4
I5
sg5
I129
ssI130
(dp135
g3
I118
sg4
I2
sg5
I130
ssI131
(dp136
g3
I119
sg4
I16
sg5
I131
ssI132
(dp137
g3
I119
sg4
I6
sg5
I132
ssI133
(dp138
g3
I119
sg4
I22
sg5
I133
ssI134
(dp139
g3
I119
sg4
I8
sg5
I134
ssI135
(dp140
g3
I120
sg4
I2
sg5
I135
ssI136
(dp141
g3
I121
sg4
I7
sg5
I136
ssI137
(dp142
g3
I122
sg4
I11
sg5
I137
ssI138
(dp143
g3
I123
sg4
I2
sg5
I138
ssI139
(dp144
g3
I124
sg4
I7
sg5
I139
ssI140
(dp145
g3
I125
sg4
I15
sg5
I140
ssI141
(dp146
g3
I126
sg4
I17
sg5
I141
ssI142
(dp147
g3
I127
sg4
I4
sg5
I142
ssI143
(dp148
g3
I128
sg4
I2
sg5
I143
ssI144
(dp149
g3
I129
sg4
I2
sg5
I144
ssI145
(dp150
g3
I130
sg4
I17
sg5
I145
ssI146
(dp151
g3
I131
sg4
I20
sg5
I146
ssI147
(dp152
g3
I132
sg4
I12
sg5
I147
ssI148
(dp153
g3
I132
sg4
I16
sg5
I148
ssI149
(dp154
g3
I132
sg4
I15
sg5
I149
ssI150
(dp155
g3
I132
sg4
I7
sg5
I150
ssI151
(dp156
g3
I132
sg4
I14
sg5
I151
ssI152
(dp157
g3
I132
sg4
I8
sg5
I152
ssI153
(dp158
g3
I133
sg4
I21
sg5
I153
ssI154
(dp159
g3
I134
sg4
I4
sg5
I154
ssI155
(dp160
g3
I135
sg4
I20
sg5
I155
ssI156
(dp161
g3
I136
sg4
I15
sg5
I156
ssI157
(dp162
g3
I137
sg4
I13
sg5
I157
ssI158
(dp163
g3
I138
sg4
I4
sg5
I158
ssI159
(dp164
g3
I139
sg4
I7
sg5
I159
ssI160
(dp165
g3
I139
sg4
I4
sg5
I160
ssI161
(dp166
g3
I140
sg4
I15
sg5
I161
ssI162
(dp167
g3
I141
sg4
I13
sg5
I162
ssI163
(dp168
g3
I142
sg4
I0
sg5
I163
ssI164
(dp169
g3
I143
sg4
I23
sg5
I164
ssI165
(dp170
g3
I144
sg4
I6
sg5
I165
ssI166
(dp171
g3
I144
sg4
I0
sg5
I166
ssI167
(dp172
g3
I145
sg4
I2
sg5
I167
ssI168
(dp173
g3
I146
sg4
I2
sg5
I168
ssI169
(dp174
g3
I147
sg4
I2
sg5
I169
ssI170
(dp175
g3
I148
sg4
I0
sg5
I170
ssI171
(dp176
g3
I149
sg4
I13
sg5
I171
ssI172
(dp177
g3
I150
sg4
I10
sg5
I172
ssI173
(dp178
g3
I151
sg4
I10
sg5
I173
ssI174
(dp179
g3
I152
sg4
I4
sg5
I174
ssI175
(dp180
g3
I153
sg4
I9
sg5
I175
ssI176
(dp181
g3
I154
sg4
I9
sg5
I176
ssI177
(dp182
g3
I155
sg4
I2
sg5
I177
ssI178
(dp183
g3
I156
sg4
I21
sg5
I178
ssI179
(dp184
g3
I157
sg4
I2
sg5
I179
ssI180
(dp185
g3
I158
sg4
I2
sg5
I180
ssI181
(dp186
g3
I159
sg4
I24
sg5
I181
ssI182
(dp187
g3
I160
sg4
I15
sg5
I182
ssI183
(dp188
g3
I161
sg4
I2
sg5
I183
ssI184
(dp189
g3
I162
sg4
I1
sg5
I184
ssI185
(dp190
g3
I163
sg4
I0
sg5
I185
ssI186
(dp191
g3
I164
sg4
I24
sg5
I186
ssI187
(dp192
g3
I165
sg4
I6
sg5
I187
ssI188
(dp193
g3
I165
sg4
I17
sg5
I188
ssI189
(dp194
g3
I166
sg4
I0
sg5
I189
ssI190
(dp195
g3
I167
sg4
I0
sg5
I190
ssI191
(dp196
g3
I168
sg4
I23
sg5
I191
ssI192
(dp197
g3
I169
sg4
I1
sg5
I192
ssI193
(dp198
g3
I170
sg4
I0
sg5
I193
ssI194
(dp199
g3
I171
sg4
I9
sg5
I194
ssI195
(dp200
g3
I172
sg4
I11
sg5
I195
ssI196
(dp201
g3
I173
sg4
I2
sg5
I196
ssI197
(dp202
g3
I174
sg4
I2
sg5
I197
ssI198
(dp203
g3
I175
sg4
I2
sg5
I198
ssI199
(dp204
g3
I176
sg4
I6
sg5
I199
ssI200
(dp205
g3
I176
sg4
I8
sg5
I200
ssI201
(dp206
g3
I177
sg4
I9
sg5
I201
ssI202
(dp207
g3
I178
sg4
I9
sg5
I202
ssI203
(dp208
g3
I179
sg4
I9
sg5
I203
ssI204
(dp209
g3
I180
sg4
I7
sg5
I204
ssI205
(dp210
g3
I181
sg4
I0
sg5
I205
ssI206
(dp211
g3
I182
sg4
I0
sg5
I206
ssI207
(dp212
g3
I183
sg4
I16
sg5
I207
ssI208
(dp213
g3
I183
sg4
I6
sg5
I208
ssI209
(dp214
g3
I183
sg4
I8
sg5
I209
ssI210
(dp215
g3
I184
sg4
I10
sg5
I210
ssI211
(dp216
g3
I185
sg4
I4
sg5
I211
ssI212
(dp217
g3
I186
sg4
I2
sg5
I212
ssI213
(dp218
g3
I187
sg4
I16
sg5
I213
ssI214
(dp219
g3
I188
sg4
I10
sg5
I214
ssI215
(dp220
g3
I189
sg4
I4
sg5
I215
ssI216
(dp221
g3
I190
sg4
I23
sg5
I216
ssI217
(dp222
g3
I191
sg4
I10
sg5
I217
ssI218
(dp223
g3
I192
sg4
I10
sg5
I218
ssI219
(dp224
g3
I193
sg4
I10
sg5
I219
ssI220
(dp225
g3
I194
sg4
I18
sg5
I220
ssI221
(dp226
g3
I195
sg4
I10
sg5
I221
ssI222
(dp227
g3
I196
sg4
I10
sg5
I222
ssI223
(dp228
g3
I197
sg4
I10
sg5
I223
ssI224
(dp229
g3
I198
sg4
I3
sg5
I224
ssI225
(dp230
g3
I199
sg4
I10
sg5
I225
ssI226
(dp231
g3
I200
sg4
I10
sg5
I226
ssI227
(dp232
g3
I201
sg4
I3
sg5
I227
ssI228
(dp233
g3
I202
sg4
I10
sg5
I228
ssI229
(dp234
g3
I203
sg4
I10
sg5
I229
ssI230
(dp235
g3
I204
sg4
I10
sg5
I230
ssI231
(dp236
g3
I205
sg4
I2
sg5
I231
ssI232
(dp237
g3
I205
sg4
I16
sg5
I232
ssI233
(dp238
g3
I205
sg4
I6
sg5
I233
ssI234
(dp239
g3
I205
sg4
I8
sg5
I234
ssI235
(dp240
g3
I206
sg4
I7
sg5
I235
ssI236
(dp241
g3
I206
sg4
I8
sg5
I236
ssI237
(dp242
g3
I207
sg4
I2
sg5
I237
ssI238
(dp243
g3
I208
sg4
I5
sg5
I238
ssI239
(dp244
g3
I209
sg4
I6
sg5
I239
ssI240
(dp245
g3
I210
sg4
I12
sg5
I240
ssI241
(dp246
g3
I211
sg4
I0
sg5
I241
ssI242
(dp247
g3
I212
sg4
I9
sg5
I242
ssI243
(dp248
g3
I212
sg4
I23
sg5
I243
ssI244
(dp249
g3
I213
sg4
I9
sg5
I244
ssI245
(dp250
g3
I214
sg4
I9
sg5
I245
ssI246
(dp251
g3
I215
sg4
I4
sg5
I246
ssI247
(dp252
g3
I216
sg4
I2
sg5
I247
ssI248
(dp253
g3
I217
sg4
I24
sg5
I248
ssI249
(dp254
g3
I218
sg4
I5
sg5
I249
ssI250
(dp255
g3
I219
sg4
I9
sg5
I250
ssI251
(dp256
g3
I220
sg4
I9
sg5
I251
ssI252
(dp257
g3
I221
sg4
I9
sg5
I252
ssI253
(dp258
g3
I222
sg4
I9
sg5
I253
ssI254
(dp259
g3
I223
sg4
I2
sg5
I254
ssI255
(dp260
g3
I224
sg4
I0
sg5
I255
ssI256
(dp261
g3
I225
sg4
I2
sg5
I256
ssI257
(dp262
g3
I226
sg4
I6
sg5
I257
ssI258
(dp263
g3
I226
sg4
I22
sg5
I258
ssI259
(dp264
g3
I226
sg4
I7
sg5
I259
ssI260
(dp265
g3
I226
sg4
I0
sg5
I260
ssI261
(dp266
g3
I226
sg4
I8
sg5
I261
ssI262
(dp267
g3
I227
sg4
I16
sg5
I262
ssI263
(dp268
g3
I227
sg4
I6
sg5
I263
ssI264
(dp269
g3
I227
sg4
I8
sg5
I264
ssI265
(dp270
g3
I228
sg4
I13
sg5
I265
ssI266
(dp271
g3
I229
sg4
I10
sg5
I266
ssI267
(dp272
g3
I230
sg4
I10
sg5
I267
ssI268
(dp273
g3
I231
sg4
I20
sg5
I268
ssI269
(dp274
g3
I232
sg4
I2
sg5
I269
ssI270
(dp275
g3
I233
sg4
I20
sg5
I270
ssI271
(dp276
g3
I234
sg4
I13
sg5
I271
ssI272
(dp277
g3
I235
sg4
I10
sg5
I272
ssI273
(dp278
g3
I236
sg4
I1
sg5
I273
ssI274
(dp279
g3
I237
sg4
I25
sg5
I274
ssI275
(dp280
g3
I238
sg4
I16
sg5
I275
ssI276
(dp281
g3
I238
sg4
I25
sg5
I276
ssI277
(dp282
g3
I239
sg4
I25
sg5
I277
ssI278
(dp283
g3
I239
sg4
I26
sg5
I278
ssI279
(dp284
g3
I240
sg4
I27
sg5
I279
ssI280
(dp285
g3
I240
sg4
I25
sg5
I280
ssI281
(dp286
g3
I241
sg4
I27
sg5
I281
ssI282
(dp287
g3
I242
sg4
I27
sg5
I282
ssI283
(dp288
g3
I243
sg4
I25
sg5
I283
ssI284
(dp289
g3
I244
sg4
I2
sg5
I284
ssI285
(dp290
g3
I245
sg4
I26
sg5
I285
ssI286
(dp291
g3
I246
sg4
I16
sg5
I286
ssI287
(dp292
g3
I246
sg4
I25
sg5
I287
ssI288
(dp293
g3
I246
sg4
I2
sg5
I288
ssI289
(dp294
g3
I247
sg4
I23
sg5
I289
ssI290
(dp295
g3
I248
sg4
I26
sg5
I290
ssI291
(dp296
g3
I249
sg4
I12
sg5
I291
ssI292
(dp297
g3
I249
sg4
I25
sg5
I292
ssI293
(dp298
g3
I250
sg4
I25
sg5
I293
ssI294
(dp299
g3
I251
sg4
I16
sg5
I294
ssI295
(dp300
g3
I252
sg4
I2
sg5
I295
ssI296
(dp301
g3
I253
sg4
I26
sg5
I296
ssI297
(dp302
g3
I254
sg4
I27
sg5
I297
ssI298
(dp303
g3
I254
sg4
I25
sg5
I298
ssI299
(dp304
g3
I255
sg4
I25
sg5
I299
ssI300
(dp305
g3
I256
sg4
I25
sg5
I300
ssI301
(dp306
g3
I257
sg4
I25
sg5
I301
ssI302
(dp307
g3
I258
sg4
I26
sg5
I302
ssI303
(dp308
g3
I259
sg4
I25
sg5
I303
ssI304
(dp309
g3
I260
sg4
I25
sg5
I304
ssI305
(dp310
g3
I261
sg4
I23
sg5
I305
ssI306
(dp311
g3
I262
sg4
I25
sg5
I306
ssI307
(dp312
g3
I263
sg4
I25
sg5
I307
ssI308
(dp313
g3
I264
sg4
I25
sg5
I308
ssI309
(dp314
g3
I265
sg4
I25
sg5
I309
ssI310
(dp315
g3
I266
sg4
I1
sg5
I310
ssI311
(dp316
g3
I267
sg4
I25
sg5
I311
ssI312
(dp317
g3
I268
sg4
I1
sg5
I312
ssI313
(dp318
g3
I269
sg4
I27
sg5
I313
ssI314
(dp319
g3
I269
sg4
I25
sg5
I314
ssI315
(dp320
g3
I270
sg4
I1
sg5
I315
ssI316
(dp321
g3
I271
sg4
I25
sg5
I316
ssI317
(dp322
g3
I272
sg4
I25
sg5
I317
ssI318
(dp323
g3
I273
sg4
I27
sg5
I318
ssI319
(dp324
g3
I273
sg4
I25
sg5
I319
ssI320
(dp325
g3
I274
sg4
I26
sg5
I320
ssI321
(dp326
g3
I275
sg4
I25
sg5
I321
ssI322
(dp327
g3
I276
sg4
I25
sg5
I322
ssI323
(dp328
g3
I277
sg4
I2
sg5
I323
ssI324
(dp329
g3
I278
sg4
I25
sg5
I324
ssI325
(dp330
g3
I279
sg4
I13
sg5
I325
ssI326
(dp331
g3
I280
sg4
I13
sg5
I326
ssI327
(dp332
g3
I281
sg4
I12
sg5
I327
ssI328
(dp333
g3
I281
sg4
I25
sg5
I328
ssI329
(dp334
g3
I282
sg4
I25
sg5
I329
ssI330
(dp335
g3
I283
sg4
I2
sg5
I330
ssI331
(dp336
g3
I284
sg4
I25
sg5
I331
ssI332
(dp337
g3
I285
sg4
I27
sg5
I332
ssI333
(dp338
g3
I285
sg4
I25
sg5
I333
ssI334
(dp339
g3
I286
sg4
I25
sg5
I334
ssI335
(dp340
g3
I287
sg4
I25
sg5
I335
ssI336
(dp341
g3
I288
sg4
I25
sg5
I336
ssI337
(dp342
g3
I289
sg4
I25
sg5
I337
ssI338
(dp343
g3
I290
sg4
I27
sg5
I338
ssI339
(dp344
g3
I290
sg4
I25
sg5
I339
ssI340
(dp345
g3
I291
sg4
I27
sg5
I340
ssI341
(dp346
g3
I291
sg4
I25
sg5
I341
ssI342
(dp347
g3
I292
sg4
I27
sg5
I342
ssI343
(dp348
g3
I292
sg4
I25
sg5
I343
ssI344
(dp349
g3
I293
sg4
I25
sg5
I344
ssI345
(dp350
g3
I294
sg4
I25
sg5
I345
ssI346
(dp351
g3
I295
sg4
I27
sg5
I346
ssI347
(dp352
g3
I295
sg4
I25
sg5
I347
ssI348
(dp353
g3
I296
sg4
I25
sg5
I348
ssI349
(dp354
g3
I297
sg4
I25
sg5
I349
ssI350
(dp355
g3
I298
sg4
I27
sg5
I350
ssI351
(dp356
g3
I298
sg4
I25
sg5
I351
ssI352
(dp357
g3
I299
sg4
I16
sg5
I352
ssI353
(dp358
g3
I299
sg4
I25
sg5
I353
ssI354
(dp359
g3
I300
sg4
I25
sg5
I354
ssI355
(dp360
g3
I301
sg4
I27
sg5
I355
ssI356
(dp361
g3
I301
sg4
I25
sg5
I356
ssI357
(dp362
g3
I302
sg4
I25
sg5
I357
ssI358
(dp363
g3
I303
sg4
I2
sg5
I358
ssI359
(dp364
g3
I304
sg4
I25
sg5
I359
ssI360
(dp365
g3
I305
sg4
I2
sg5
I360
ssI361
(dp366
g3
I306
sg4
I25
sg5
I361
ssI362
(dp367
g3
I307
sg4
I25
sg5
I362
ssI363
(dp368
g3
I308
sg4
I10
sg5
I363
ssI364
(dp369
g3
I309
sg4
I23
sg5
I364
ssI365
(dp370
g3
I310
sg4
I12
sg5
I365
ssI366
(dp371
g3
I310
sg4
I7
sg5
I366
ssI367
(dp372
g3
I310
sg4
I11
sg5
I367
ssI368
(dp373
g3
I311
sg4
I7
sg5
I368
ssI369
(dp374
g3
I312
sg4
I5
sg5
I369
ssI370
(dp375
g3
I312
sg4
I11
sg5
I370
ssI371
(dp376
g3
I313
sg4
I13
sg5
I371
ssI372
(dp377
g3
I314
sg4
I21
sg5
I372
ssI373
(dp378
g3
I315
sg4
I16
sg5
I373
ssI374
(dp379
g3
I315
sg4
I6
sg5
I374
ssI375
(dp380
g3
I316
sg4
I6
sg5
I375
ssI376
(dp381
g3
I316
sg4
I7
sg5
I376
ssI377
(dp382
g3
I316
sg4
I14
sg5
I377
ssI378
(dp383
g3
I316
sg4
I8
sg5
I378
ssI379
(dp384
g3
I317
sg4
I23
sg5
I379
ssI380
(dp385
g3
I318
sg4
I2
sg5
I380
ssI381
(dp386
g3
I319
sg4
I2
sg5
I381
ssI382
(dp387
g3
I320
sg4
I3
sg5
I382
ssI383
(dp388
g3
I321
sg4
I1
sg5
I383
ssI384
(dp389
g3
I322
sg4
I5
sg5
I384
ssI385
(dp390
g3
I323
sg4
I28
sg5
I385
ssI386
(dp391
g3
I324
sg4
I28
sg5
I386
ssI387
(dp392
g3
I325
sg4
I1
sg5
I387
ssI388
(dp393
g3
I326
sg4
I28
sg5
I388
ssI389
(dp394
g3
I326
sg4
I3
sg5
I389
ssI390
(dp395
g3
I326
sg4
I11
sg5
I390
ssI391
(dp396
g3
I327
sg4
I1
sg5
I391
ssI392
(dp397
g3
I328
sg4
I28
sg5
I392
ssI393
(dp398
g3
I329
sg4
I22
sg5
I393
ssI394
(dp399
g3
I329
sg4
I3
sg5
I394
ssI395
(dp400
g3
I329
sg4
I11
sg5
I395
ssI396
(dp401
g3
I330
sg4
I24
sg5
I396
ssI397
(dp402
g3
I330
sg4
I22
sg5
I397
ssI398
(dp403
g3
I331
sg4
I28
sg5
I398
ssI399
(dp404
g3
I332
sg4
I28
sg5
I399
ssI400
(dp405
g3
I333
sg4
I1
sg5
I400
ssI401
(dp406
g3
I334
sg4
I24
sg5
I401
ssI402
(dp407
g3
I335
sg4
I24
sg5
I402
ssI403
(dp408
g3
I336
sg4
I28
sg5
I403
ssI404
(dp409
g3
I336
sg4
I3
sg5
I404
ssI405
(dp410
g3
I337
sg4
I24
sg5
I405
ssI406
(dp411
g3
I338
sg4
I24
sg5
I406
ssI407
(dp412
g3
I339
sg4
I28
sg5
I407
ssI408
(dp413
g3
I340
sg4
I23
sg5
I408
ssI409
(dp414
g3
I341
sg4
I3
sg5
I409
ssI410
(dp415
g3
I341
sg4
I5
sg5
I410
ssI411
(dp416
g3
I342
sg4
I1
sg5
I411
ssI412
(dp417
g3
I343
sg4
I28
sg5
I412
ssI413
(dp418
g3
I343
sg4
I11
sg5
I413
ssI414
(dp419
g3
I344
sg4
I28
sg5
I414
ssI415
(dp420
g3
I345
sg4
I22
sg5
I415
ssI416
(dp421
g3
I345
sg4
I8
sg5
I416
ssI417
(dp422
g3
I346
sg4
I1
sg5
I417
ssI418
(dp423
g3
I347
sg4
I28
sg5
I418
ssI419
(dp424
g3
I348
sg4
I24
sg5
I419
ssI420
(dp425
g3
I349
sg4
I28
sg5
I420
ssI421
(dp426
g3
I350
sg4
I5
sg5
I421
ssI422
(dp427
g3
I350
sg4
I11
sg5
I422
ssI423
(dp428
g3
I351
sg4
I28
sg5
I423
ssI424
(dp429
g3
I352
sg4
I13
sg5
I424
ssI425
(dp430
g3
I353
sg4
I13
sg5
I425
ssI426
(dp431
g3
I354
sg4
I5
sg5
I426
ssI427
(dp432
g3
I355
sg4
I28
sg5
I427
ssI428
(dp433
g3
I356
sg4
I24
sg5
I428
ssI429
(dp434
g3
I357
sg4
I24
sg5
I429
ssI430
(dp435
g3
I358
sg4
I28
sg5
I430
ssI431
(dp436
g3
I359
sg4
I3
sg5
I431
ssI432
(dp437
g3
I359
sg4
I5
sg5
I432
ssI433
(dp438
g3
I360
sg4
I17
sg5
I433
ssI434
(dp439
g3
I361
sg4
I22
sg5
I434
ssI435
(dp440
g3
I361
sg4
I3
sg5
I435
ssI436
(dp441
g3
I362
sg4
I29
sg5
I436
ssI437
(dp442
g3
I363
sg4
I13
sg5
I437
ssI438
(dp443
g3
I364
sg4
I3
sg5
I438
ssI439
(dp444
g3
I365
sg4
I13
sg5
I439
ssI440
(dp445
g3
I366
sg4
I4
sg5
I440
ssI441
(dp446
g3
I367
sg4
I13
sg5
I441
ssI442
(dp447
g3
I368
sg4
I17
sg5
I442
ssI443
(dp448
g3
I369
sg4
I13
sg5
I443
ssI444
(dp449
g3
I370
sg4
I2
sg5
I444
ssI445
(dp450
g3
I371
sg4
I10
sg5
I445
ssI446
(dp451
g3
I372
sg4
I10
sg5
I446
ssI447
(dp452
g3
I373
sg4
I13
sg5
I447
ssI448
(dp453
g3
I374
sg4
I2
sg5
I448
ssI449
(dp454
g3
I375
sg4
I23
sg5
I449
ssI450
(dp455
g3
I376
sg4
I1
sg5
I450
ssI451
(dp456
g3
I377
sg4
I7
sg5
I451
ssI452
(dp457
g3
I377
sg4
I11
sg5
I452
ssI453
(dp458
g3
I378
sg4
I12
sg5
I453
ssI454
(dp459
g3
I378
sg4
I11
sg5
I454
ssI455
(dp460
g3
I379
sg4
I21
sg5
I455
ssI456
(dp461
g3
I380
sg4
I2
sg5
I456
ssI457
(dp462
g3
I381
sg4
I10
sg5
I457
ssI458
(dp463
g3
I382
sg4
I5
sg5
I458
ssI459
(dp464
g3
I383
sg4
I13
sg5
I459
ssI460
(dp465
g3
I383
sg4
I21
sg5
I460
ssI461
(dp466
g3
I384
sg4
I4
sg5
I461
ssI462
(dp467
g3
I385
sg4
I2
sg5
I462
ssI463
(dp468
g3
I386
sg4
I18
sg5
I463
ssI464
(dp469
g3
I386
sg4
I9
sg5
I464
ssI465
(dp470
g3
I387
sg4
I2
sg5
I465
ssI466
(dp471
g3
I388
sg4
I10
sg5
I466
ssI467
(dp472
g3
I389
sg4
I12
sg5
I467
ssI468
(dp473
g3
I389
sg4
I7
sg5
I468
ssI469
(dp474
g3
I390
sg4
I2
sg5
I469
ssI470
(dp475
g3
I391
sg4
I4
sg5
I470
ssI471
(dp476
g3
I392
sg4
I4
sg5
I471
ssI472
(dp477
g3
I393
sg4
I14
sg5
I472
ssI473
(dp478
g3
I394
sg4
I3
sg5
I473
ssI474
(dp479
g3
I395
sg4
I0
sg5
I474
ssI475
(dp480
g3
I396
sg4
I17
sg5
I475
ssI476
(dp481
g3
I396
sg4
I0
sg5
I476
ssI477
(dp482
g3
I397
sg4
I17
sg5
I477
ssI478
(dp483
g3
I398
sg4
I0
sg5
I478
ssI479
(dp484
g3
I399
sg4
I30
sg5
I479
ssI480
(dp485
g3
I400
sg4
I0
sg5
I480
ssI481
(dp486
g3
I401
sg4
I19
sg5
I481
ssI482
(dp487
g3
I402
sg4
I19
sg5
I482
ssI483
(dp488
g3
I403
sg4
I0
sg5
I483
ssI484
(dp489
g3
I404
sg4
I10
sg5
I484
ssI485
(dp490
g3
I405
sg4
I13
sg5
I485
ssI486
(dp491
g3
I406
sg4
I16
sg5
I486
ssI487
(dp492
g3
I407
sg4
I13
sg5
I487
ssI488
(dp493
g3
I408
sg4
I9
sg5
I488
ssI489
(dp494
g3
I409
sg4
I0
sg5
I489
ssI490
(dp495
g3
I410
sg4
I17
sg5
I490
ssI491
(dp496
g3
I411
sg4
I7
sg5
I491
ssI492
(dp497
g3
I412
sg4
I2
sg5
I492
ssI493
(dp498
g3
I413
sg4
I10
sg5
I493
ssI494
(dp499
g3
I414
sg4
I2
sg5
I494
ssI495
(dp500
g3
I415
sg4
I3
sg5
I495
ssI496
(dp501
g3
I415
sg4
I8
sg5
I496
ssI497
(dp502
g3
I416
sg4
I19
sg5
I497
ssI498
(dp503
g3
I417
sg4
I19
sg5
I498
ssI499
(dp504
g3
I418
sg4
I19
sg5
I499
ssI500
(dp505
g3
I419
sg4
I19
sg5
I500
ssI501
(dp506
g3
I420
sg4
I8
sg5
I501
ssI502
(dp507
g3
I421
sg4
I2
sg5
I502
ssI503
(dp508
g3
I422
sg4
I2
sg5
I503
ssI504
(dp509
g3
I423
sg4
I2
sg5
I504
ssI505
(dp510
g3
I424
sg4
I2
sg5
I505
ssI506
(dp511
g3
I425
sg4
I12
sg5
I506
ssI507
(dp512
g3
I426
sg4
I9
sg5
I507
ssI508
(dp513
g3
I427
sg4
I6
sg5
I508
ssI509
(dp514
g3
I427
sg4
I14
sg5
I509
ssI510
(dp515
g3
I428
sg4
I20
sg5
I510
ssI511
(dp516
g3
I429
sg4
I5
sg5
I511
ssI512
(dp517
g3
I430
sg4
I11
sg5
I512
ssI513
(dp518
g3
I431
sg4
I17
sg5
I513
ssI514
(dp519
g3
I432
sg4
I23
sg5
I514
ssI515
(dp520
g3
I433
sg4
I21
sg5
I515
ssI516
(dp521
g3
I434
sg4
I2
sg5
I516
ssI517
(dp522
g3
I435
sg4
I13
sg5
I517
ssI518
(dp523
g3
I436
sg4
I0
sg5
I518
ssI519
(dp524
g3
I437
sg4
I30
sg5
I519
ssI520
(dp525
g3
I438
sg4
I9
sg5
I520
ssI521
(dp526
g3
I439
sg4
I2
sg5
I521
ssI522
(dp527
g3
I439
sg4
I16
sg5
I522
ssI523
(dp528
g3
I440
sg4
I7
sg5
I523
ssI524
(dp529
g3
I441
sg4
I10
sg5
I524
ssI525
(dp530
g3
I442
sg4
I3
sg5
I525
ssI526
(dp531
g3
I443
sg4
I4
sg5
I526
ssI527
(dp532
g3
I444
sg4
I0
sg5
I527
ssI528
(dp533
g3
I445
sg4
I3
sg5
I528
ssI529
(dp534
g3
I445
sg4
I5
sg5
I529
ssI530
(dp535
g3
I446
sg4
I24
sg5
I530
ssI531
(dp536
g3
I446
sg4
I5
sg5
I531
ssI532
(dp537
g3
I447
sg4
I10
sg5
I532
ssI533
(dp538
g3
I448
sg4
I3
sg5
I533
ssI534
(dp539
g3
I449
sg4
I3
sg5
I534
ssI535
(dp540
g3
I450
sg4
I20
sg5
I535
ssI536
(dp541
g3
I451
sg4
I7
sg5
I536
ssI537
(dp542
g3
I452
sg4
I2
sg5
I537
ssI538
(dp543
g3
I453
sg4
I20
sg5
I538
ssI539
(dp544
g3
I454
sg4
I30
sg5
I539
ssI540
(dp545
g3
I455
sg4
I3
sg5
I540
ssI541
(dp546
g3
I456
sg4
I10
sg5
I541
ssI542
(dp547
g3
I457
sg4
I2
sg5
I542
ssI543
(dp548
g3
I458
sg4
I8
sg5
I543
ssI544
(dp549
g3
I459
sg4
I0
sg5
I544
ssI545
(dp550
g3
I460
sg4
I23
sg5
I545
ssI546
(dp551
g3
I461
sg4
I1
sg5
I546
ssI547
(dp552
g3
I462
sg4
I5
sg5
I547
ssI548
(dp553
g3
I462
sg4
I11
sg5
I548
ssI549
(dp554
g3
I463
sg4
I2
sg5
I549
ssI550
(dp555
g3
I464
sg4
I7
sg5
I550
ssI551
(dp556
g3
I465
sg4
I3
sg5
I551
ssI552
(dp557
g3
I466
sg4
I10
sg5
I552
ssI553
(dp558
g3
I467
sg4
I7
sg5
I553
ssI554
(dp559
g3
I467
sg4
I14
sg5
I554
ssI555
(dp560
g3
I468
sg4
I10
sg5
I555
ssI556
(dp561
g3
I469
sg4
I10
sg5
I556
ssI557
(dp562
g3
I470
sg4
I5
sg5
I557
ssI558
(dp563
g3
I471
sg4
I13
sg5
I558
ssI559
(dp564
g3
I472
sg4
I13
sg5
I559
ssI560
(dp565
g3
I473
sg4
I9
sg5
I560
ssI561
(dp566
g3
I474
sg4
I9
sg5
I561
ssI562
(dp567
g3
I475
sg4
I7
sg5
I562
ssI563
(dp568
g3
I476
sg4
I9
sg5
I563
ssI564
(dp569
g3
I477
sg4
I9
sg5
I564
ssI565
(dp570
g3
I478
sg4
I9
sg5
I565
ssI566
(dp571
g3
I479
sg4
I9
sg5
I566
ssI567
(dp572
g3
I480
sg4
I9
sg5
I567
ssI568
(dp573
g3
I481
sg4
I16
sg5
I568
ssI569
(dp574
g3
I481
sg4
I6
sg5
I569
ssI570
(dp575
g3
I481
sg4
I3
sg5
I570
ssI571
(dp576
g3
I481
sg4
I0
sg5
I571
ssI572
(dp577
g3
I481
sg4
I14
sg5
I572
ssI573
(dp578
g3
I481
sg4
I8
sg5
I573
ssI574
(dp579
g3
I481
sg4
I11
sg5
I574
ssI575
(dp580
g3
I482
sg4
I2
sg5
I575
ssI576
(dp581
g3
I483
sg4
I2
sg5
I576
ssI577
(dp582
g3
I484
sg4
I16
sg5
I577
ssI578
(dp583
g3
I485
sg4
I23
sg5
I578
ssI579
(dp584
g3
I486
sg4
I7
sg5
I579
ssI580
(dp585
g3
I487
sg4
I23
sg5
I580
ssI581
(dp586
g3
I488
sg4
I7
sg5
I581
ssI582
(dp587
g3
I489
sg4
I5
sg5
I582
ssI583
(dp588
g3
I490
sg4
I10
sg5
I583
ssI584
(dp589
g3
I491
sg4
I10
sg5
I584
ssI585
(dp590
g3
I492
sg4
I10
sg5
I585
ssI586
(dp591
g3
I493
sg4
I2
sg5
I586
ssI587
(dp592
g3
I494
sg4
I16
sg5
I587
ssI588
(dp593
g3
I495
sg4
I2
sg5
I588
ssI589
(dp594
g3
I496
sg4
I15
sg5
I589
ssI590
(dp595
g3
I497
sg4
I4
sg5
I590
ssI591
(dp596
g3
I498
sg4
I13
sg5
I591
ssI592
(dp597
g3
I499
sg4
I13
sg5
I592
ssI593
(dp598
g3
I500
sg4
I1
sg5
I593
ssI594
(dp599
g3
I501
sg4
I7
sg5
I594
ssI595
(dp600
g3
I502
sg4
I10
sg5
I595
ssI596
(dp601
g3
I503
sg4
I4
sg5
I596
ssI597
(dp602
g3
I504
sg4
I10
sg5
I597
ssI598
(dp603
g3
I505
sg4
I10
sg5
I598
ssI599
(dp604
g3
I506
sg4
I10
sg5
I599
ssI600
(dp605
g3
I507
sg4
I22
sg5
I600
ssI601
(dp606
g3
I507
sg4
I17
sg5
I601
ssI602
(dp607
g3
I507
sg4
I8
sg5
I602
ssI603
(dp608
g3
I508
sg4
I2
sg5
I603
ssI604
(dp609
g3
I509
sg4
I2
sg5
I604
ssI605
(dp610
g3
I510
sg4
I10
sg5
I605
ssI606
(dp611
g3
I511
sg4
I10
sg5
I606
ssI607
(dp612
g3
I512
sg4
I10
sg5
I607
ssI608
(dp613
g3
I513
sg4
I10
sg5
I608
ssI609
(dp614
g3
I514
sg4
I10
sg5
I609
ssI610
(dp615
g3
I515
sg4
I10
sg5
I610
ssI611
(dp616
g3
I516
sg4
I10
sg5
I611
ssI612
(dp617
g3
I517
sg4
I10
sg5
I612
ssI613
(dp618
g3
I518
sg4
I10
sg5
I613
ssI614
(dp619
g3
I519
sg4
I10
sg5
I614
ssI615
(dp620
g3
I520
sg4
I19
sg5
I615
ssI616
(dp621
g3
I521
sg4
I19
sg5
I616
ssI617
(dp622
g3
I522
sg4
I19
sg5
I617
ssI618
(dp623
g3
I523
sg4
I19
sg5
I618
ssI619
(dp624
g3
I524
sg4
I19
sg5
I619
ssI620
(dp625
g3
I525
sg4
I31
sg5
I620
ssI621
(dp626
g3
I526
sg4
I13
sg5
I621
ssI622
(dp627
g3
I527
sg4
I13
sg5
I622
ssI623
(dp628
g3
I528
sg4
I10
sg5
I623
ssI624
(dp629
g3
I529
sg4
I0
sg5
I624
ssI625
(dp630
g3
I530
sg4
I0
sg5
I625
ssI626
(dp631
g3
I531
sg4
I0
sg5
I626
ssI627
(dp632
g3
I532
sg4
I7
sg5
I627
ssI628
(dp633
g3
I533
sg4
I0
sg5
I628
ssI629
(dp634
g3
I534
sg4
I2
sg5
I629
ssI630
(dp635
g3
I535
sg4
I3
sg5
I630
ssI631
(dp636
g3
I536
sg4
I3
sg5
I631
ssI632
(dp637
g3
I537
sg4
I24
sg5
I632
ssI633
(dp638
g3
I538
sg4
I6
sg5
I633
ssI634
(dp639
g3
I538
sg4
I14
sg5
I634
ssI635
(dp640
g3
I538
sg4
I8
sg5
I635
ssI636
(dp641
g3
I538
sg4
I11
sg5
I636
ssI637
(dp642
g3
I539
sg4
I9
sg5
I637
ssI638
(dp643
g3
I540
sg4
I2
sg5
I638
ssI639
(dp644
g3
I541
sg4
I0
sg5
I639
ssI640
(dp645
g3
I541
sg4
I14
sg5
I640
ssI641
(dp646
g3
I542
sg4
I1
sg5
I641
ssI642
(dp647
g3
I543
sg4
I14
sg5
I642
ssI643
(dp648
g3
I544
sg4
I17
sg5
I643
ssI644
(dp649
g3
I545
sg4
I0
sg5
I644
ssI645
(dp650
g3
I546
sg4
I0
sg5
I645
ssI646
(dp651
g3
I547
sg4
I21
sg5
I646
ssI647
(dp652
g3
I548
sg4
I2
sg5
I647
ssI648
(dp653
g3
I549
sg4
I4
sg5
I648
ssI649
(dp654
g3
I550
sg4
I4
sg5
I649
ssI650
(dp655
g3
I551
sg4
I10
sg5
I650
ssI651
(dp656
g3
I552
sg4
I23
sg5
I651
ssI652
(dp657
g3
I553
sg4
I10
sg5
I652
ssI653
(dp658
g3
I554
sg4
I7
sg5
I653
ssI654
(dp659
g3
I555
sg4
I7
sg5
I654
ssI655
(dp660
g3
I556
sg4
I5
sg5
I655
ssI656
(dp661
g3
I557
sg4
I7
sg5
I656
ssI657
(dp662
g3
I557
sg4
I11
sg5
I657
ssI658
(dp663
g3
I558
sg4
I7
sg5
I658
ssI659
(dp664
g3
I559
sg4
I5
sg5
I659
ssI660
(dp665
g3
I559
sg4
I11
sg5
I660
ssI661
(dp666
g3
I560
sg4
I12
sg5
I661
ssI662
(dp667
g3
I561
sg4
I5
sg5
I662
ssI663
(dp668
g3
I562
sg4
I12
sg5
I663
ssI664
(dp669
g3
I562
sg4
I16
sg5
I664
ssI665
(dp670
g3
I562
sg4
I6
sg5
I665
ssI666
(dp671
g3
I562
sg4
I7
sg5
I666
ssI667
(dp672
g3
I562
sg4
I3
sg5
I667
ssI668
(dp673
g3
I562
sg4
I5
sg5
I668
ssI669
(dp674
g3
I562
sg4
I8
sg5
I669
ssI670
(dp675
g3
I562
sg4
I11
sg5
I670
ssI671
(dp676
g3
I563
sg4
I10
sg5
I671
ssI672
(dp677
g3
I564
sg4
I10
sg5
I672
ssI673
(dp678
g3
I565
sg4
I7
sg5
I673
ssI674
(dp679
g3
I565
sg4
I11
sg5
I674
ssI675
(dp680
g3
I566
sg4
I2
sg5
I675
ss.(dp1
.