(lp1
S'login'
p2
aS'title'
p3
aS'body'
p4
aS'date'
p5
a.I2
.(dp1
I1
(dp2
S'body'
p3
S'Nouvelle'
p4
sS'title'
p5
S'Essai'
p6
sS'__id__'
p7
I1
sS'date'
p8
cdatetime
datetime
p9
(S'\x07\xd6\x0c\x18\x08 \x1b\x08T\xd0'
tRp10
sS'login'
p11
S'quentel'
p12
ss.(dp1
.