(lp1
S'login'
p2
aS'password'
p3
aS'bgcolor'
p4
aS'fontfamily'
p5
a.I1
.(dp1
I0
(dp2
S'bgcolor'
p3
S'#AAA0F6'
p4
sS'__id__'
p5
I0
sS'fontfamily'
p6
S'sans-serif'
p7
sS'login'
p8
S'quentel'
p9
sS'password'
p10
S'\xc2+=\xe7m\xd5bv\xd3\xab\x9c\x9cn\xae\x80R'
p11
ss.(dp1
.