(dp1
S'age'
p2
S'int'
p3
sS'name'
p4
S'str'
p5
sS'size'
p6
S'float'
p7
s.(lp1
(dp2
S'__id__'
p3
I1
sS'age'
p4
I12
sS'name'
p5
S'jean'
p6
sS'size'
p7
F1.6020046810329389
sa(dp8
g3
I2
sg4
I42
sg5
S'camille'
p9
sg7
F1.4884664609337837
sa(dp10
g3
I3
sg4
I14
sg5
g6
sg7
F1.1393656392894811
sa(dp11
g3
I4
sg4
I41
sg5
g9
sg7
F1.5963976476331192
sa(dp12
g3
I5
sg4
I15
sg5
g9
sg7
F1.1795017475983651
sa(dp13
g3
I6
sg4
I45
sg5
g6
sg7
F1.4233059906956171
sa(dp14
g3
I7
sg4
I8
sg5
S'claire'
p15
sg7
F1.2080309859341494
sa(dp16
g3
I8
sg4
I8
sg5
S'pierre'
p17
sg7
F1.7490413276551449
sa(dp18
g3
I9
sg4
I38
sg5
g9
sg7
F1.345840513788011
sa(dp19
g3
I10
sg4
I16
sg5
g6
sg7
F1.2069575824457721
sa(dp20
g3
I11
sg4
I28
sg5
g15
sg7
F1.7235700958228972
sa(dp21
g3
I12
sg4
I36
sg5
g17
sg7
F1.3233203646473692
sa(dp22
g3
I13
sg4
I24
sg5
g15
sg7
F1.1971582764938447
sa(dp23
g3
I14
sg4
I13
sg5
S'florence'
p24
sg7
F1.6604353590366636
sa(dp25
g3
I15
sg4
I9
sg5
S'simon'
p26
sg7
F1.4636131621849107
sa(dp27
g3
I16
sg4
I30
sg5
g24
sg7
F1.5500282548492459
sa(dp28
g3
I17
sg4
I18
sg5
g15
sg7
F1.1990309074897123
sa(dp29
g3
I18
sg4
I30
sg5
g15
sg7
F1.4843624064546272
sa(dp30
g3
I19
sg4
I29
sg5
g26
sg7
F1.6249917710249999
sa(dp31
g3
I20
sg4
I47
sg5
g17
sg7
F1.1861659392634365
sa(dp32
g3
I21
sg4
I22
sg5
g24
sg7
F1.4656541352767749
sa(dp33
g3
I22
sg4
I10
sg5
g6
sg7
F1.2239872333086748
sa(dp34
g3
I23
sg4
I21
sg5
S'marie-anne'
p35
sg7
F1.2444594201453176
sa(dp36
g3
I24
sg4
I37
sg5
g6
sg7
F1.6353767377806112
sa(dp37
g3
I25
sg4
I10
sg5
g35
sg7
F1.4930151434048777
sa(dp38
g3
I26
sg4
I10
sg5
g17
sg7
F1.5400755596329181
sa(dp39
g3
I27
sg4
I26
sg5
g35
sg7
F1.4958869187585213
sa(dp40
g3
I28
sg4
I15
sg5
g35
sg7
F1.7044715376472013
sa(dp41
g3
I29
sg4
I27
sg5
g9
sg7
F1.6770998979050653
sa(dp42
g3
I30
sg4
I35
sg5
g35
sg7
F1.3562730678447439
sa(dp43
g3
I31
sg4
I26
sg5
g17
sg7
F1.5654579513348235
sa(dp44
g3
I32
sg4
I34
sg5
g24
sg7
F1.5301390599103861
sa(dp45
g3
I33
sg4
I26
sg5
g15
sg7
F1.1426887442309899
sa(dp46
g3
I34
sg4
I39
sg5
g35
sg7
F1.3072669899064611
sa(dp47
g3
I35
sg4
I39
sg5
g15
sg7
F1.5195128964484013
sa(dp48
g3
I36
sg4
I29
sg5
g6
sg7
F1.308647010157266
sa(dp49
g3
I37
sg4
I28
sg5
g6
sg7
F1.1910888079533417
sa(dp50
g3
I38
sg4
I27
sg5
g9
sg7
F1.4756134911856604
sa(dp51
g3
I39
sg4
I43
sg5
g15
sg7
F1.1008863330203176
sa(dp52
g3
I40
sg4
I7
sg5
g24
sg7
F1.2709379117953956
sa(dp53
g3
I41
sg4
I36
sg5
g24
sg7
F1.2490701243079814
sa(dp54
g3
I42
sg4
I8
sg5
g26
sg7
F1.7153450399172583
sa(dp55
g3
I43
sg4
I32
sg5
g17
sg7
F1.1160213926366709
sa(dp56
g3
I44
sg4
I45
sg5
g6
sg7
F1.5993000329715796
sa(dp57
g3
I45
sg4
I47
sg5
g24
sg7
F1.4441961453690504
sa(dp58
g3
I46
sg4
I27
sg5
g15
sg7
F1.1438903078660234
sa(dp59
g3
I47
sg4
I24
sg5
g24
sg7
F1.6408420237252397
sa(dp60
g3
I48
sg4
I30
sg5
g24
sg7
F1.6204331334856195
sa(dp61
g3
I49
sg4
I25
sg5
g9
sg7
F1.1034133230492242
sa(dp62
g3
I50
sg4
I12
sg5
g9
sg7
F1.4807671469784944
sa(dp63
g3
I51
sg4
I41
sg5
g9
sg7
F1.6770326482121405
sa(dp64
g3
I52
sg4
I13
sg5
g35
sg7
F1.1333954904390373
sa(dp65
g3
I53
sg4
I21
sg5
g15
sg7
F1.707880785939055
sa(dp66
g3
I54
sg4
I8
sg5
g17
sg7
F1.5550296183201437
sa(dp67
g3
I55
sg4
I40
sg5
g9
sg7
F1.3955701453794707
sa(dp68
g3
I56
sg4
I42
sg5
g6
sg7
F1.4297249843351281
sa(dp69
g3
I57
sg4
I39
sg5
g26
sg7
F1.3818637179840692
sa(dp70
g3
I58
sg4
I42
sg5
g9
sg7
F1.2775407795175824
sa(dp71
g3
I59
sg4
I34
sg5
g6
sg7
F1.3848728237617014
sa(dp72
g3
I60
sg4
I32
sg5
g6
sg7
F1.1055598582143134
sa(dp73
g3
I61
sg4
I20
sg5
g15
sg7
F1.1312963376803014
sa(dp74
g3
I62
sg4
I15
sg5
g35
sg7
F1.6318809335015074
sa(dp75
g3
I63
sg4
I27
sg5
g15
sg7
F1.4694547535751503
sa(dp76
g3
I64
sg4
I8
sg5
g15
sg7
F1.1793879897424664
sa(dp77
g3
I65
sg4
I12
sg5
g6
sg7
F1.45542547445101
sa(dp78
g3
I66
sg4
I37
sg5
g26
sg7
F1.2242949572243551
sa(dp79
g3
I67
sg4
I15
sg5
g35
sg7
F1.5164471289158745
sa(dp80
g3
I68
sg4
I40
sg5
g35
sg7
F1.6396636022552369
sa(dp81
g3
I69
sg4
I32
sg5
g26
sg7
F1.3467350050549014
sa(dp82
g3
I70
sg4
I30
sg5
g26
sg7
F1.6324575735062856
sa(dp83
g3
I71
sg4
I11
sg5
g9
sg7
F1.5081249318264449
sa(dp84
g3
I72
sg4
I18
sg5
g17
sg7
F1.6005797324352815
sa(dp85
g3
I73
sg4
I45
sg5
g35
sg7
F1.5169297547456979
sa(dp86
g3
I74
sg4
I39
sg5
g17
sg7
F1.1053533116143994
sa(dp87
g3
I75
sg4
I44
sg5
g17
sg7
F1.5392187595671791
sa(dp88
g3
I76
sg4
I11
sg5
g24
sg7
F1.6710605235088629
sa(dp89
g3
I77
sg4
I30
sg5
g26
sg7
F1.3337823815480288
sa(dp90
g3
I78
sg4
I25
sg5
g17
sg7
F1.7288959949368001
sa(dp91
g3
I79
sg4
I22
sg5
g35
sg7
F1.6731757956509028
sa(dp92
g3
I80
sg4
I28
sg5
g24
sg7
F1.632624415952368
sa(dp93
g3
I81
sg4
I39
sg5
g15
sg7
F1.5450424719126947
sa(dp94
g3
I82
sg4
I18
sg5
g6
sg7
F1.6653240847538129
sa(dp95
g3
I83
sg4
I27
sg5
g35
sg7
F1.5547840747558785
sa(dp96
g3
I84
sg4
I8
sg5
g17
sg7
F1.6670363953592964
sa(dp97
g3
I85
sg4
I41
sg5
g35
sg7
F1.6776790852347983
sa(dp98
g3
I86
sg4
I39
sg5
g26
sg7
F1.2391485243304323
sa(dp99
g3
I87
sg4
I9
sg5
g35
sg7
F1.1463456813804134
sa(dp100
g3
I88
sg4
I33
sg5
g15
sg7
F1.4741404940591913
sa(dp101
g3
I89
sg4
I18
sg5
g6
sg7
F1.159072234868656
sa(dp102
g3
I90
sg4
I41
sg5
g17
sg7
F1.2956739089483342
sa(dp103
g3
I91
sg4
I34
sg5
g17
sg7
F1.6418019842583664
sa(dp104
g3
I92
sg4
I15
sg5
g9
sg7
F1.1270824093193794
sa(dp105
g3
I93
sg4
I15
sg5
g15
sg7
F1.2887626392942297
sa(dp106
g3
I94
sg4
I44
sg5
g26
sg7
F1.5740338263403402
sa(dp107
g3
I95
sg4
I35
sg5
g17
sg7
F1.3726556647321537
sa(dp108
g3
I96
sg4
I33
sg5
g6
sg7
F1.5003585115453095
sa(dp109
g3
I97
sg4
I12
sg5
g9
sg7
F1.7404079304416782
sa(dp110
g3
I98
sg4
I27
sg5
g6
sg7
F1.6357879715505064
sa(dp111
g3
I99
sg4
I15
sg5
g17
sg7
F1.6404556314845986
sa(dp112
g3
I100
sg4
I22
sg5
g17
sg7
F1.6569229558715501
sa.